; Function Attrs: mustprogress nounwind uwtable
define internal fastcc noundef ptr @"_ZNK5folly10symbolizer7ElfFile21iterateProgramHeadersIZNS1_4initEvE3$_0EEPK10Elf64_PhdrT_"(ptr noundef nonnull align 8 dereferenceable(576) %0) unnamed_addr #4 align 2 personality ptr @__gxx_personality_v0 {
  %2 = getelementptr inbounds nuw i8, ptr %0, i64 528
  %3 = load i64, ptr %2, align 8, !tbaa !39
  %.not.i.i = icmp ult i64 %3, 64
  br i1 %.not.i.i, label %4, label %_ZNK5folly10symbolizer7ElfFile9elfHeaderEv.exit

4:                                                ; preds = %1
  tail call void (ptr, ...) @_ZN5folly6detail21safe_assert_terminateILb0EEEvPKNS0_15safe_assert_argEz(ptr noundef nonnull @_ZZNK5folly10symbolizer7ElfFile2atI10Elf64_EhdrEERKT_mE30__folly_detail_safe_assert_arg, ptr noundef nonnull @.str.29, i64 noundef 0, ptr noundef nonnull @.str.30, i64 noundef 64, ptr noundef nonnull @.str.31, ptr noundef nonnull align 8 dereferenceable(576) %0, ptr noundef nonnull @.str.32, i64 noundef %3) #30
  unreachable

_ZNK5folly10symbolizer7ElfFile9elfHeaderEv.exit:  ; preds = %1
  %5 = getelementptr inbounds nuw i8, ptr %0, i64 520
  %6 = load ptr, ptr %5, align 8, !tbaa !17
  %7 = getelementptr inbounds nuw i8, ptr %6, i64 32
  %8 = load i64, ptr %7, align 8, !tbaa !85
  %9 = add i64 %8, 56
  %.not = icmp ult i64 %9, %3
  br i1 %.not, label %_ZNK5folly10symbolizer7ElfFile2atI10Elf64_PhdrEERKT_m.exit, label %.loopexit

_ZNK5folly10symbolizer7ElfFile2atI10Elf64_PhdrEERKT_m.exit: ; preds = %_ZNK5folly10symbolizer7ElfFile9elfHeaderEv.exit
  %10 = getelementptr inbounds nuw i8, ptr %6, i64 56
  %11 = load i16, ptr %10, align 8, !tbaa !69
  %12 = zext i16 %11 to i64
  %.not1015.not = icmp eq i16 %11, 0
  br i1 %.not1015.not, label %.loopexit, label %.lr.ph.preheader

.lr.ph.preheader:                                 ; preds = %_ZNK5folly10symbolizer7ElfFile2atI10Elf64_PhdrEERKT_m.exit
  %13 = getelementptr inbounds nuw i8, ptr %6, i64 %8
  br label %.lr.ph

.lr.ph:                                           ; preds = %.lr.ph.preheader, %_ZNK5folly10symbolizer7ElfFile9elfHeaderEv.exit14
  %.0717 = phi i64 [ %15, %_ZNK5folly10symbolizer7ElfFile9elfHeaderEv.exit14 ], [ 0, %.lr.ph.preheader ]
  %.0816 = phi ptr [ %16, %_ZNK5folly10symbolizer7ElfFile9elfHeaderEv.exit14 ], [ %13, %.lr.ph.preheader ]
  %.08.val = load i32, ptr %.0816, align 8, !tbaa !86
  %14 = icmp eq i32 %.08.val, 1
  br i1 %14, label %.loopexit, label %_ZNK5folly10symbolizer7ElfFile9elfHeaderEv.exit14

_ZNK5folly10symbolizer7ElfFile9elfHeaderEv.exit14: ; preds = %.lr.ph
  %15 = add nuw nsw i64 %.0717, 1
  %16 = getelementptr inbounds nuw i8, ptr %.0816, i64 56
  %exitcond.not = icmp eq i64 %15, %12
  br i1 %exitcond.not, label %.loopexit, label %.lr.ph, !llvm.loop !87

.loopexit:                                        ; preds = %.lr.ph, %_ZNK5folly10symbolizer7ElfFile9elfHeaderEv.exit14, %_ZNK5folly10symbolizer7ElfFile2atI10Elf64_PhdrEERKT_m.exit, %_ZNK5folly10symbolizer7ElfFile9elfHeaderEv.exit
  %.09 = phi ptr [ null, %_ZNK5folly10symbolizer7ElfFile9elfHeaderEv.exit ], [ null, %_ZNK5folly10symbolizer7ElfFile2atI10Elf64_PhdrEERKT_m.exit ], [ %.0816, %.lr.ph ], [ null, %_ZNK5folly10symbolizer7ElfFile9elfHeaderEv.exit14 ]
  ret ptr %.09
}